Certificate Request:
    Data:
        Version: 1 (0x0)
        Subject: CN = pg.jarry.dk
        Subject Public Key Info:
            Public Key Algorithm: rsaEncryption
                RSA Public-Key: (2048 bit)
                Modulus:
                    00:e9:2a:bd:45:56:43:9a:ab:3c:ef:c6:e6:c1:cd:
                    9d:3b:83:17:d0:6e:fa:d3:da:79:1f:dd:68:1d:bc:
                    92:cc:55:89:61:ca:58:e6:30:53:77:0f:32:8f:b7:
                    07:df:e3:c4:85:80:b5:88:ba:e7:ba:ef:ac:65:65:
                    3e:e0:21:0e:e7:2f:6f:32:3f:0b:a3:da:53:f5:ec:
                    ac:59:a9:ea:45:c6:0d:59:46:e5:89:6b:9f:75:da:
                    52:9f:b1:9e:a6:9c:30:6f:b3:89:b4:dc:7b:c0:6e:
                    d2:28:95:1e:f1:bf:b0:cf:d2:d6:81:c4:42:98:38:
                    2a:67:43:f0:b9:cb:e4:b7:34:a1:29:c9:4a:ae:10:
                    d2:11:9c:7f:6e:ef:99:6e:87:e0:a2:46:2d:9d:91:
                    52:8f:dd:12:74:b8:48:fd:f9:1b:c5:05:92:42:14:
                    0b:d8:8b:f1:29:89:24:2b:1f:86:86:91:71:69:15:
                    b6:13:65:4f:e0:49:6f:62:0a:cf:6f:37:f0:4b:35:
                    fa:8d:ca:a7:33:57:23:ea:8c:e5:2f:f8:8c:07:1f:
                    aa:30:da:2e:0e:91:7e:58:b8:23:66:f2:43:4d:d7:
                    ce:db:c3:c5:ab:13:55:b7:83:31:d0:dd:38:e6:71:
                    41:31:c3:cb:21:f7:25:2a:28:f2:09:58:83:87:0f:
                    01:13
                Exponent: 65537 (0x10001)
        Attributes:
            a0:00
    Signature Algorithm: sha256WithRSAEncryption
         4b:78:1c:c6:34:ae:e8:5b:6f:99:37:e8:c4:89:cd:d9:12:81:
         69:b1:f3:f1:b3:3a:3c:b0:76:7f:2b:96:67:7c:58:b0:e8:04:
         6b:5d:d0:db:a4:55:65:cb:90:f6:84:08:41:c9:2e:bd:a8:5a:
         5a:a9:af:15:ea:ec:8a:9a:2e:22:5e:1d:c8:88:b3:96:95:2c:
         dd:73:62:db:c1:8a:7e:29:17:a3:2e:e7:43:6f:64:e9:5f:1c:
         16:23:6f:bc:27:6c:23:bd:dc:84:e3:3a:dc:c7:a0:4f:77:c2:
         9f:18:23:2a:6b:80:bc:92:06:d7:60:dc:16:e3:a2:b6:de:ba:
         b8:6a:44:5f:d4:ee:66:bf:6e:ee:34:02:5b:d0:f3:1f:39:ba:
         15:72:c3:4e:20:4a:23:49:62:12:c9:81:a7:77:f6:0d:4a:e3:
         87:0d:88:61:e8:e9:79:d0:e9:82:ea:87:6c:86:51:ff:ed:3b:
         e1:d9:7f:82:7d:95:17:98:ae:12:54:53:16:7c:58:80:39:df:
         d1:97:96:fc:b6:1b:ea:41:48:02:a2:98:84:01:05:25:bc:76:
         54:88:9f:c1:3f:63:41:8a:8a:2d:f5:b0:19:f2:8b:8b:11:a0:
         20:e2:27:49:82:f5:e4:b5:0a:5d:a3:28:6b:cb:ff:61:7d:99:
         61:a0:bc:a6
-----BEGIN CERTIFICATE REQUEST-----
MIICWzCCAUMCAQAwFjEUMBIGA1UEAwwLcGcuamFycnkuZGswggEiMA0GCSqGSIb3
DQEBAQUAA4IBDwAwggEKAoIBAQDpKr1FVkOaqzzvxubBzZ07gxfQbvrT2nkf3Wgd
vJLMVYlhyljmMFN3DzKPtwff48SFgLWIuue676xlZT7gIQ7nL28yPwuj2lP17KxZ
qepFxg1ZRuWJa5912lKfsZ6mnDBvs4m03HvAbtIolR7xv7DP0taBxEKYOCpnQ/C5
y+S3NKEpyUquENIRnH9u75luh+CiRi2dkVKP3RJ0uEj9+RvFBZJCFAvYi/EpiSQr
H4aGkXFpFbYTZU/gSW9iCs9vN/BLNfqNyqczVyPqjOUv+IwHH6ow2i4OkX5YuCNm
8kNN187bw8WrE1W3gzHQ3TjmcUExw8sh9yUqKPIJWIOHDwETAgMBAAGgADANBgkq
hkiG9w0BAQsFAAOCAQEAS3gcxjSu6FtvmTfoxInN2RKBabHz8bM6PLB2fyuWZ3xY
sOgEa13Q26RVZcuQ9oQIQckuvahaWqmvFersipouIl4dyIizlpUs3XNi28GKfikX
oy7nQ29k6V8cFiNvvCdsI73chOM63MegT3fCnxgjKmuAvJIG12DcFuOitt66uGpE
X9TuZr9u7jQCW9DzHzm6FXLDTiBKI0liEsmBp3f2DUrjhw2IYejpedDpguqHbIZR
/+074dl/gn2VF5iuElRTFnxYgDnf0ZeW/LYb6kFIAqKYhAEFJbx2VIifwT9jQYqK
LfWwGfKLixGgIOInSYL15LUKXaMoa8v/YX2ZYaC8pg==
-----END CERTIFICATE REQUEST-----
